target datalayout = "e-m:e-p270:32:32-p271:32:32-p272:64:64-i64:64-i128:128-f80:128-n8:16:32:64-S128"
target triple = "x86_64-pc-linux-gnu"

%struct.ObjectAddress = type { i32, i32, i32 }
%struct.nameData = type { [64 x i8] }
%struct.FormData_pg_publication = type { i32, %struct.nameData, i32, i8, i8, i8, i8, i8, i8, i8 }
%struct.HeapTupleData = type { i32, %struct.ItemPointerData, i32, ptr }
%struct.ItemPointerData = type { %struct.BlockIdData, i16 }
%struct.BlockIdData = type { i16, i16 }
%struct.HeapTupleHeaderData = type { %union.anon, %struct.ItemPointerData, i16, i16, i8, [0 x i8] }
%union.anon = type { %struct.HeapTupleFields }
%struct.HeapTupleFields = type { i32, i32, %union.anon.0 }
%union.anon.0 = type { i32 }

@.str.1 = private unnamed_addr constant [18 x i8] c"publicationcmds.c\00", align 1
@.str.6 = private unnamed_addr constant [32 x i8] c"publication \22%s\22 does not exist\00", align 1
@__func__.AlterPublicationOwner = private unnamed_addr constant [22 x i8] c"AlterPublicationOwner\00", align 1

; Function Attrs: inlinehint nounwind uwtable
define internal i64 @PointerGetDatum(ptr noundef %0) #3 {
  %2 = alloca ptr, align 8
  store ptr %0, ptr %2, align 8
  %3 = load ptr, ptr %2, align 8
  %4 = ptrtoint ptr %3 to i64
  ret i64 %4
}

; Function Attrs: inlinehint nounwind uwtable
define internal ptr @GETSTRUCT(ptr noundef %0) #3 {
  %2 = alloca ptr, align 8
  store ptr %0, ptr %2, align 8
  %3 = load ptr, ptr %2, align 8
  %4 = getelementptr inbounds nuw %struct.HeapTupleData, ptr %3, i32 0, i32 3
  %5 = load ptr, ptr %4, align 8
  %6 = load ptr, ptr %2, align 8
  %7 = getelementptr inbounds nuw %struct.HeapTupleData, ptr %6, i32 0, i32 3
  %8 = load ptr, ptr %7, align 8
  %9 = getelementptr inbounds nuw %struct.HeapTupleHeaderData, ptr %8, i32 0, i32 4
  %10 = load i8, ptr %9, align 2
  %11 = zext i8 %10 to i32
  %12 = sext i32 %11 to i64
  %13 = getelementptr inbounds i8, ptr %5, i64 %12
  ret ptr %13
}

; Function Attrs: inlinehint nounwind uwtable
define internal i64 @CStringGetDatum(ptr noundef %0) #3 {
  %2 = alloca ptr, align 8
  store ptr %0, ptr %2, align 8
  %3 = load ptr, ptr %2, align 8
  %4 = call i64 @PointerGetDatum(ptr noundef %3)
  ret i64 %4
}

; Function Attrs: nounwind uwtable
define dso_local { i64, i32 } @AlterPublicationOwner(ptr noundef %0, i32 noundef %1) #0 {
  %3 = alloca %struct.ObjectAddress, align 4
  %4 = alloca ptr, align 8
  %5 = alloca i32, align 4
  %6 = alloca i32, align 4
  %7 = alloca ptr, align 8
  %8 = alloca ptr, align 8
  %9 = alloca ptr, align 8
  %10 = alloca { i64, i32 }, align 8
  store ptr %0, ptr %4, align 8
  store i32 %1, ptr %5, align 4
  call void @llvm.lifetime.start.p0(i64 4, ptr %6) #10
  call void @llvm.lifetime.start.p0(i64 8, ptr %7) #10
  call void @llvm.lifetime.start.p0(i64 8, ptr %8) #10
  call void @llvm.lifetime.start.p0(i64 8, ptr %9) #10
  %11 = call ptr @table_open(i32 noundef 6104, i32 noundef 3)
  store ptr %11, ptr %8, align 8
  %12 = load ptr, ptr %4, align 8
  %13 = call i64 @CStringGetDatum(ptr noundef %12)
  %14 = call ptr @SearchSysCacheCopy(i32 noundef 48, i64 noundef %13, i64 noundef 0, i64 noundef 0, i64 noundef 0)
  store ptr %14, ptr %7, align 8
  %15 = load ptr, ptr %7, align 8
  %16 = icmp ne ptr %15, null
  br i1 %16, label %30, label %17

17:                                               ; preds = %2
  br label %18

18:                                               ; preds = %17
  br i1 true, label %19, label %21

19:                                               ; preds = %18
  %20 = call zeroext i1 @errstart_cold(i32 noundef 21, ptr noundef null) #11
  br i1 %20, label %23, label %27

21:                                               ; preds = %18
  %22 = call zeroext i1 @errstart(i32 noundef 21, ptr noundef null)
  br i1 %22, label %23, label %27

23:                                               ; preds = %21, %19
  %24 = call i32 @errcode(i32 noundef 67137668)
  %25 = load ptr, ptr %4, align 8
  %26 = call i32 (ptr, ...) @errmsg(ptr noundef @.str.6, ptr noundef %25)
  call void @errfinish(ptr noundef @.str.1, i32 noundef 2029, ptr noundef @__func__.AlterPublicationOwner)
  br label %27

27:                                               ; preds = %23, %21, %19
  unreachable

28:                                               ; No predecessors!
  br label %29

29:                                               ; preds = %28
  br label %30

30:                                               ; preds = %29, %2
  %31 = load ptr, ptr %7, align 8
  %32 = call ptr @GETSTRUCT(ptr noundef %31)
  store ptr %32, ptr %9, align 8
  %33 = load ptr, ptr %9, align 8
  %34 = getelementptr inbounds nuw %struct.FormData_pg_publication, ptr %33, i32 0, i32 0
  %35 = load i32, ptr %34, align 4
  store i32 %35, ptr %6, align 4
  %36 = load ptr, ptr %8, align 8
  %37 = load ptr, ptr %7, align 8
  %38 = load i32, ptr %5, align 4
  call void @AlterPublicationOwner_internal(ptr noundef %36, ptr noundef %37, i32 noundef %38)
  br label %39

39:                                               ; preds = %30
  %40 = getelementptr inbounds nuw %struct.ObjectAddress, ptr %3, i32 0, i32 0
  store i32 6104, ptr %40, align 4
  %41 = load i32, ptr %6, align 4
  %42 = getelementptr inbounds nuw %struct.ObjectAddress, ptr %3, i32 0, i32 1
  store i32 %41, ptr %42, align 4
  %43 = getelementptr inbounds nuw %struct.ObjectAddress, ptr %3, i32 0, i32 2
  store i32 0, ptr %43, align 4
  br label %44

44:                                               ; preds = %39
  br label %45

45:                                               ; preds = %44
  %46 = load ptr, ptr %7, align 8
  call void @heap_freetuple(ptr noundef %46)
  %47 = load ptr, ptr %8, align 8
  call void @table_close(ptr noundef %47, i32 noundef 3)
  call void @llvm.lifetime.end.p0(i64 8, ptr %9) #10
  call void @llvm.lifetime.end.p0(i64 8, ptr %8) #10
  call void @llvm.lifetime.end.p0(i64 8, ptr %7) #10
  call void @llvm.lifetime.end.p0(i64 4, ptr %6) #10
  call void @llvm.memcpy.p0.p0.i64(ptr align 8 %10, ptr align 4 %3, i64 12, i1 false)
  %48 = load { i64, i32 }, ptr %10, align 8
  ret { i64, i32 } %48
}